target datalayout = "e-m:e-p270:32:32-p271:32:32-p272:64:64-i64:64-i128:128-f80:128-n8:16:32:64-S128"
target triple = "x86_64-unknown-linux-gnu"

; Function Attrs: mustprogress nounwind uwtable
define dso_local noundef ptr @_Z34get_node_api_context_register_funcPN4node11EnvironmentEPKci(ptr noundef %node_env, ptr noundef %module_name, i32 noundef %module_api_version) #4 {
entry:
  %retval = alloca ptr, align 8
  %node_env.addr = alloca ptr, align 8
  %module_name.addr = alloca ptr, align 8
  %module_api_version.addr = alloca i32, align 4
  store ptr %node_env, ptr %node_env.addr, align 8
  store ptr %module_name, ptr %module_name.addr, align 8
  store i32 %module_api_version, ptr %module_api_version.addr, align 4
  %0 = load i32, ptr %module_api_version.addr, align 4
  %cmp = icmp eq i32 %0, 9
  br i1 %cmp, label %if.then, label %if.else

if.then:                                          ; preds = %entry
  store ptr @_ZL30node_api_context_register_funcILi9EEvN2v85LocalINS0_6ObjectEEENS1_INS0_5ValueEEENS1_INS0_7ContextEEEPv, ptr %retval, align 8
  br label %return

if.else:                                          ; preds = %entry
  %1 = load i32, ptr %module_api_version.addr, align 4
  %cmp1 = icmp eq i32 %1, 2147483647
  br i1 %cmp1, label %if.then2, label %if.else3

if.then2:                                         ; preds = %if.else
  store ptr @_ZL30node_api_context_register_funcILi2147483647EEvN2v85LocalINS0_6ObjectEEENS1_INS0_5ValueEEENS1_INS0_7ContextEEEPv, ptr %retval, align 8
  br label %return

if.else3:                                         ; preds = %if.else
  %2 = load i32, ptr %module_api_version.addr, align 4
  %cmp4 = icmp sge i32 %2, 1
  br i1 %cmp4, label %land.lhs.true, label %if.else7

land.lhs.true:                                    ; preds = %if.else3
  %3 = load i32, ptr %module_api_version.addr, align 4
  %cmp5 = icmp sle i32 %3, 8
  br i1 %cmp5, label %if.then6, label %if.else7

if.then6:                                         ; preds = %land.lhs.true
  store ptr @_ZL30node_api_context_register_funcILi8EEvN2v85LocalINS0_6ObjectEEENS1_INS0_5ValueEEENS1_INS0_7ContextEEEPv, ptr %retval, align 8
  br label %return

if.else7:                                         ; preds = %land.lhs.true, %if.else3
  %4 = load ptr, ptr %node_env.addr, align 8
  %5 = load ptr, ptr %module_name.addr, align 8
  %6 = load i32, ptr %module_api_version.addr, align 4
  call void @_ZN6v8impl12_GLOBAL__N_124ThrowNodeApiVersionErrorEPN4node11EnvironmentEPKci(ptr noundef %4, ptr noundef %5, i32 noundef %6)
  store ptr null, ptr %retval, align 8
  br label %return

return:                                           ; preds = %if.else7, %if.then6, %if.then2, %if.then
  %7 = load ptr, ptr %retval, align 8
  ret ptr %7
}