; Function Attrs: mustprogress nounwind uwtable
define dso_local noundef ptr @_Z34get_node_api_context_register_funcPN4node11EnvironmentEPKci(ptr nocapture noundef readonly %node_env, ptr noundef %module_name, i32 noundef %module_api_version) local_unnamed_addr #3 {
entry:
  switch i32 %module_api_version, label %if.else3 [
    i32 9, label %return
    i32 2147483647, label %if.then2
  ]

if.then2:                                         ; preds = %entry
  br label %return

if.else3:                                         ; preds = %entry
  %0 = add i32 %module_api_version, -1
  %or.cond = icmp ult i32 %0, 8
  br i1 %or.cond, label %return, label %if.else7

if.else7:                                         ; preds = %if.else3
  tail call fastcc void @_ZN6v8impl12_GLOBAL__N_124ThrowNodeApiVersionErrorEPN4node11EnvironmentEPKci(ptr noundef %node_env, ptr noundef %module_name, i32 noundef %module_api_version)
  br label %return

return:                                           ; preds = %if.else3, %entry, %if.else7, %if.then2
  %retval.0 = phi ptr [ @_ZL30node_api_context_register_funcILi2147483647EEvN2v85LocalINS0_6ObjectEEENS1_INS0_5ValueEEENS1_INS0_7ContextEEEPv, %if.then2 ], [ null, %if.else7 ], [ @_ZL30node_api_context_register_funcILi9EEvN2v85LocalINS0_6ObjectEEENS1_INS0_5ValueEEENS1_INS0_7ContextEEEPv, %entry ], [ @_ZL30node_api_context_register_funcILi8EEvN2v85LocalINS0_6ObjectEEENS1_INS0_5ValueEEENS1_INS0_7ContextEEEPv, %if.else3 ]
  ret ptr %retval.0
}